; Function Attrs: mustprogress uwtable
define void @_ZNK4LIEF2PE5Debug5cloneEv(ptr dead_on_unwind noalias nocapture writable writeonly sret(%"class.std::unique_ptr") align 8 %0, ptr noundef nonnull align 8 dereferenceable(36) %1) unnamed_addr #3 align 2 personality ptr @__gxx_personality_v0 {
  tail call void @llvm.experimental.noalias.scope.decl(metadata !4)
  %3 = tail call noalias noundef nonnull dereferenceable(40) ptr @_Znwm(i64 noundef 40) #22, !noalias !4
  invoke void @_ZN4LIEF2PE5DebugC1ERKS1_(ptr noundef nonnull align 8 dereferenceable(36) %3, ptr noundef nonnull align 8 dereferenceable(36) %1)
          to label %_ZSt11make_uniqueIN4LIEF2PE5DebugEJRKS2_EENSt8__detail9_MakeUniqIT_E15__single_objectEDpOT0_.exit unwind label %4, !noalias !4

4:                                                ; preds = %2
  %5 = landingpad { ptr, i32 }
          cleanup
  tail call void @_ZdlPv(ptr noundef nonnull %3) #21, !noalias !4
  resume { ptr, i32 } %5

_ZSt11make_uniqueIN4LIEF2PE5DebugEJRKS2_EENSt8__detail9_MakeUniqIT_E15__single_objectEDpOT0_.exit: ; preds = %2
  store ptr %3, ptr %0, align 8, !alias.scope !4
  ret void
}